; Function Attrs: nounwind uwtable
define internal noundef zeroext i1 @profile_del_cb(ptr readnone captures(none) %0, i32 %1, ptr noundef readonly captures(none) %2) #2 {
  %4 = getelementptr inbounds nuw i8, ptr %2, i64 64
  %5 = load ptr, ptr %4, align 8
  %.not = icmp eq ptr %5, null
  br i1 %.not, label %10, label %6

6:                                                ; preds = %3
  %7 = getelementptr inbounds nuw i8, ptr %2, i64 88
  %8 = load ptr, ptr %7, align 8
  %9 = tail call ptr @wmem_map_remove(ptr noundef nonnull %5, ptr noundef %8) #18
  br label %10

10:                                               ; preds = %6, %3
  %11 = getelementptr inbounds nuw i8, ptr %2, i64 48
  %12 = load ptr, ptr %11, align 8
  tail call void @wmem_destroy_allocator(ptr noundef %12) #18
  ret i1 false
}